; Function Attrs: nofree norecurse nosync nounwind memory(argmem: readwrite) uwtable
define internal void @diag_downright_32x32_c(ptr noundef writeonly captures(none) %0, i64 noundef %1, ptr noundef readonly captures(none) %2, ptr noundef readonly captures(none) %3) #2 {
  %5 = alloca [63 x i8], align 16
  call void @llvm.lifetime.start.p0(i64 63, ptr nonnull %5) #13
  %.pre = load i8, ptr %2, align 1, !tbaa !8
  %.phi.trans.insert = getelementptr inbounds nuw i8, ptr %2, i64 1
  %.pre42 = load i8, ptr %.phi.trans.insert, align 1, !tbaa !8
  %.pre43 = load i8, ptr %3, align 1, !tbaa !8
  %.phi.trans.insert44 = getelementptr inbounds nuw i8, ptr %3, i64 1
  %.pre45 = load i8, ptr %.phi.trans.insert44, align 1, !tbaa !8
  br label %6

6:                                                ; preds = %4, %6
  %7 = phi i8 [ %.pre45, %4 ], [ %28, %6 ]
  %8 = phi i8 [ %.pre43, %4 ], [ %7, %6 ]
  %9 = phi i8 [ %.pre42, %4 ], [ %16, %6 ]
  %10 = phi i8 [ %.pre, %4 ], [ %9, %6 ]
  %indvars.iv = phi i64 [ 0, %4 ], [ %indvars.iv.next, %6 ]
  %11 = zext i8 %10 to i16
  %indvars.iv.next = add nuw nsw i64 %indvars.iv, 1
  %12 = zext i8 %9 to i16
  %13 = shl nuw nsw i16 %12, 1
  %14 = add nuw nsw i64 %indvars.iv, 2
  %15 = getelementptr inbounds nuw i8, ptr %2, i64 %14
  %16 = load i8, ptr %15, align 1, !tbaa !8
  %17 = zext i8 %16 to i16
  %18 = add nuw nsw i16 %11, 2
  %19 = add nuw nsw i16 %18, %13
  %20 = add nuw nsw i16 %19, %17
  %21 = lshr i16 %20, 2
  %22 = trunc nuw i16 %21 to i8
  %23 = getelementptr inbounds nuw [63 x i8], ptr %5, i64 0, i64 %indvars.iv
  store i8 %22, ptr %23, align 1, !tbaa !8
  %24 = zext i8 %8 to i16
  %25 = zext i8 %7 to i16
  %26 = shl nuw nsw i16 %25, 1
  %27 = getelementptr inbounds nuw i8, ptr %3, i64 %14
  %28 = load i8, ptr %27, align 1, !tbaa !8
  %29 = zext i8 %28 to i16
  %30 = add nuw nsw i16 %24, 2
  %31 = add nuw nsw i16 %30, %26
  %32 = add nuw nsw i16 %31, %29
  %33 = lshr i16 %32, 2
  %34 = trunc nuw i16 %33 to i8
  %35 = add nuw nsw i64 %indvars.iv, 33
  %36 = getelementptr inbounds nuw [63 x i8], ptr %5, i64 0, i64 %35
  store i8 %34, ptr %36, align 1, !tbaa !8
  %exitcond.not = icmp eq i64 %indvars.iv.next, 30
  br i1 %exitcond.not, label %37, label %6, !llvm.loop !62

37:                                               ; preds = %6
  %38 = getelementptr inbounds nuw i8, ptr %2, i64 30
  %39 = load i8, ptr %38, align 1, !tbaa !8
  %40 = zext i8 %39 to i16
  %41 = getelementptr inbounds nuw i8, ptr %2, i64 31
  %42 = load i8, ptr %41, align 1, !tbaa !8
  %43 = zext i8 %42 to i16
  %44 = shl nuw nsw i16 %43, 1
  %45 = getelementptr inbounds i8, ptr %3, i64 -1
  %46 = load i8, ptr %45, align 1, !tbaa !8
  %47 = zext i8 %46 to i16
  %48 = add nuw nsw i16 %47, 2
  %49 = add nuw nsw i16 %48, %40
  %50 = add nuw nsw i16 %49, %44
  %51 = lshr i16 %50, 2
  %52 = trunc nuw i16 %51 to i8
  %53 = getelementptr inbounds nuw i8, ptr %5, i64 30
  store i8 %52, ptr %53, align 2, !tbaa !8
  %54 = shl nuw nsw i16 %47, 1
  %55 = zext i8 %.pre43 to i16
  %56 = add nuw nsw i16 %43, 2
  %57 = add nuw nsw i16 %56, %54
  %58 = add nuw nsw i16 %57, %55
  %59 = lshr i16 %58, 2
  %60 = trunc nuw i16 %59 to i8
  %61 = getelementptr inbounds nuw i8, ptr %5, i64 31
  store i8 %60, ptr %61, align 1, !tbaa !8
  %62 = shl nuw nsw i16 %55, 1
  %63 = zext i8 %.pre45 to i16
  %64 = add nuw nsw i16 %48, %62
  %65 = add nuw nsw i16 %64, %63
  %66 = lshr i16 %65, 2
  %67 = trunc nuw i16 %66 to i8
  %68 = getelementptr inbounds nuw i8, ptr %5, i64 32
  store i8 %67, ptr %68, align 16, !tbaa !8
  br label %69

69:                                               ; preds = %37, %69
  %indvars.iv38 = phi i64 [ 0, %37 ], [ %indvars.iv.next39, %69 ]
  %70 = mul nsw i64 %1, %indvars.iv38
  %71 = getelementptr inbounds i8, ptr %0, i64 %70
  %72 = sub nsw i64 0, %indvars.iv38
  %73 = getelementptr inbounds i8, ptr %61, i64 %72
  call void @llvm.memcpy.p0.p0.i64(ptr noundef nonnull align 1 dereferenceable(32) %71, ptr noundef nonnull align 1 dereferenceable(32) %73, i64 32, i1 false)
  %indvars.iv.next39 = add nuw nsw i64 %indvars.iv38, 1
  %exitcond41.not = icmp eq i64 %indvars.iv.next39, 32
  br i1 %exitcond41.not, label %74, label %69, !llvm.loop !63

74:                                               ; preds = %69
  call void @llvm.lifetime.end.p0(i64 63, ptr nonnull %5) #13
  ret void
}